; Function Attrs: mustprogress nounwind uwtable
define void @_ZN6LibRaw4freeEPv(ptr noundef nonnull readonly align 8 captures(none) dereferenceable(767680) %0, ptr noundef %1) local_unnamed_addr #10 align 2 {
  %.not.i.i = icmp eq ptr %1, null
  br i1 %.not.i.i, label %_ZN13libraw_memmgr4freeEPv.exit, label %.preheader.i.i

.preheader.i.i:                                   ; preds = %2
  %3 = getelementptr inbounds nuw i8, ptr %0, i64 767416
  %4 = load ptr, ptr %3, align 8, !tbaa !16
  br label %6

5:                                                ; preds = %6
  %indvars.iv.next.i.i = add nuw nsw i64 %indvars.iv.i.i, 1
  %exitcond.not.i.i = icmp eq i64 %indvars.iv.next.i.i, 512
  br i1 %exitcond.not.i.i, label %_ZN13libraw_memmgr4freeEPv.exit, label %6, !llvm.loop !22

6:                                                ; preds = %5, %.preheader.i.i
  %indvars.iv.i.i = phi i64 [ 0, %.preheader.i.i ], [ %indvars.iv.next.i.i, %5 ]
  %7 = getelementptr inbounds nuw ptr, ptr %4, i64 %indvars.iv.i.i
  %8 = load ptr, ptr %7, align 8, !tbaa !19
  %9 = icmp eq ptr %8, %1
  br i1 %9, label %10, label %5

10:                                               ; preds = %6
  %11 = getelementptr inbounds nuw ptr, ptr %4, i64 %indvars.iv.i.i
  store ptr null, ptr %11, align 8, !tbaa !19
  br label %_ZN13libraw_memmgr4freeEPv.exit

_ZN13libraw_memmgr4freeEPv.exit:                  ; preds = %5, %2, %10
  tail call void @free(ptr noundef %1) #30
  ret void
}